; Function Attrs: mustprogress nofree norecurse nosync nounwind willreturn memory(argmem: read) uwtable
define hidden noundef i64 @_ZNK4cvc58internal6theory11quantifiers6TermDb15getNumOperatorsEv(ptr nocapture noundef nonnull readonly align 8 dereferenceable(1072) %this) local_unnamed_addr #7 align 2 {
entry:
  %d_list.i = getelementptr inbounds i8, ptr %this, i64 304
  %_M_finish.i.i = getelementptr inbounds i8, ptr %this, i64 312
  %0 = load ptr, ptr %_M_finish.i.i, align 8
  %1 = load ptr, ptr %d_list.i, align 8
  %sub.ptr.lhs.cast.i.i = ptrtoint ptr %0 to i64
  %sub.ptr.rhs.cast.i.i = ptrtoint ptr %1 to i64
  %sub.ptr.sub.i.i = sub i64 %sub.ptr.lhs.cast.i.i, %sub.ptr.rhs.cast.i.i
  %sub.ptr.div.i.i = ashr exact i64 %sub.ptr.sub.i.i, 3
  ret i64 %sub.ptr.div.i.i
}